; Function Attrs: nounwind sspstrong uwtable
define internal range(i64 1, -7) i64 @ossl_x509name_initialize_copy(i64 noundef returned %0, i64 noundef %1) #0 {
  %3 = icmp eq i64 %0, 0
  %4 = and i64 %0, 7
  %5 = icmp ne i64 %4, 0
  %6 = or i1 %3, %5
  br i1 %6, label %RB_OBJ_FROZEN.exit.thread.i, label %RB_FL_ABLE.exit.i.i, !prof !32

RB_FL_ABLE.exit.i.i:                              ; preds = %2
  %7 = inttoptr i64 %0 to ptr
  %8 = load i64, ptr %7, align 8, !tbaa !22
  %9 = and i64 %8, 31
  %.not.i.i = icmp eq i64 %9, 27
  %10 = and i64 %8, 2048
  %11 = icmp ne i64 %10, 0
  %or.cond.i = or i1 %.not.i.i, %11
  br i1 %or.cond.i, label %RB_OBJ_FROZEN.exit.thread.i, label %rbimpl_RB_TYPE_P_fastpath.exit.i, !prof !33

RB_OBJ_FROZEN.exit.thread.i:                      ; preds = %RB_FL_ABLE.exit.i.i, %2
  tail call void @rb_error_frozen_object(i64 noundef %0) #9
  unreachable

rbimpl_RB_TYPE_P_fastpath.exit.i:                 ; preds = %RB_FL_ABLE.exit.i.i
  %12 = icmp ne i64 %9, 5
  %13 = and i64 %8, 49152
  %.not.i = icmp eq i64 %13, 0
  %or.cond8.i = or i1 %12, %.not.i
  br i1 %or.cond8.i, label %rb_check_frozen_inline.exit, label %14, !prof !34

14:                                               ; preds = %rbimpl_RB_TYPE_P_fastpath.exit.i
  tail call void @rb_str_modify(i64 noundef %0) #8
  br label %rb_check_frozen_inline.exit

rb_check_frozen_inline.exit:                      ; preds = %rbimpl_RB_TYPE_P_fastpath.exit.i, %14
  %15 = tail call ptr @rb_check_typeddata(i64 noundef %0, ptr noundef nonnull @ossl_x509name_type) #8
  %.not = icmp eq ptr %15, null
  br i1 %.not, label %16, label %18

16:                                               ; preds = %rb_check_frozen_inline.exit
  %17 = load i64, ptr @rb_eRuntimeError, align 8, !tbaa !6
  tail call void (i64, ptr, ...) @ossl_raise(i64 noundef %17, ptr noundef nonnull @.str) #9
  unreachable

18:                                               ; preds = %rb_check_frozen_inline.exit
  %19 = tail call ptr @rb_check_typeddata(i64 noundef %1, ptr noundef nonnull @ossl_x509name_type) #8
  %.not13 = icmp eq ptr %19, null
  br i1 %.not13, label %20, label %22

20:                                               ; preds = %18
  %21 = load i64, ptr @rb_eRuntimeError, align 8, !tbaa !6
  tail call void (i64, ptr, ...) @ossl_raise(i64 noundef %21, ptr noundef nonnull @.str) #9
  unreachable

22:                                               ; preds = %18
  %23 = tail call ptr @X509_NAME_dup(ptr noundef nonnull %19) #8
  %.not14 = icmp eq ptr %23, null
  br i1 %.not14, label %24, label %26

24:                                               ; preds = %22
  %25 = load i64, ptr @eX509NameError, align 8, !tbaa !6
  tail call void (i64, ptr, ...) @ossl_raise(i64 noundef %25, ptr noundef nonnull @.str.34) #9
  unreachable

26:                                               ; preds = %22
  %27 = getelementptr inbounds nuw i8, ptr %7, i64 32
  store ptr %23, ptr %27, align 8, !tbaa !10
  tail call void @X509_NAME_free(ptr noundef nonnull %15) #8
  ret i64 %0
}